target datalayout = "e-m:e-p270:32:32-p271:32:32-p272:64:64-i64:64-i128:128-f80:128-n8:16:32:64-S128"
target triple = "x86_64-unknown-linux-gnu"

%struct.UStringSearch = type { ptr, %struct.UPattern, ptr, ptr, ptr, ptr, ptr, i8, i32, i32, i32, i8 }
%struct.UPattern = type { ptr, i32, i32, ptr, [256 x i32], i32, ptr, [256 x i64], i8, i8 }
%"class.icu_75::UCollationPCE" = type <{ %"struct.icu_75::PCEBuffer", ptr, i32, i8, i8, [2 x i8], i32, [4 x i8] }>
%"struct.icu_75::PCEBuffer" = type { [16 x %"struct.icu_75::PCEI"], ptr, i32, i32 }
%"struct.icu_75::PCEI" = type { i64, i32, i32 }

; Function Attrs: mustprogress uwtable
define internal noundef ptr @_ZL14allocateMemoryjP10UErrorCode(i32 noundef %size, ptr noundef %status) #0 {
entry:
  %size.addr = alloca i32, align 4
  %status.addr = alloca ptr, align 8
  %result = alloca ptr, align 8
  store i32 %size, ptr %size.addr, align 4
  store ptr %status, ptr %status.addr, align 8
  %0 = load i32, ptr %size.addr, align 4
  %conv = zext i32 %0 to i64
  %call = call noalias ptr @uprv_malloc_75(i64 noundef %conv) #7
  store ptr %call, ptr %result, align 8
  %1 = load ptr, ptr %result, align 8
  %cmp = icmp eq ptr %1, null
  br i1 %cmp, label %if.then, label %if.end

if.then:                                          ; preds = %entry
  %2 = load ptr, ptr %status.addr, align 8
  store i32 7, ptr %2, align 4
  br label %if.end

if.end:                                           ; preds = %if.then, %entry
  %3 = load ptr, ptr %result, align 8
  ret ptr %3
}

; Function Attrs: mustprogress uwtable
define internal noundef ptr @_ZL18addTouint64_tArrayPljPjmjP10UErrorCode(ptr noundef %destination, i32 noundef %offset, ptr noundef %destinationlength, i64 noundef %value, i32 noundef %increments, ptr noundef %status) #0 {
entry:
  %retval = alloca ptr, align 8
  %destination.addr = alloca ptr, align 8
  %offset.addr = alloca i32, align 4
  %destinationlength.addr = alloca ptr, align 8
  %value.addr = alloca i64, align 8
  %increments.addr = alloca i32, align 4
  %status.addr = alloca ptr, align 8
  %newlength = alloca i32, align 4
  %temp = alloca ptr, align 8
  store ptr %destination, ptr %destination.addr, align 8
  store i32 %offset, ptr %offset.addr, align 4
  store ptr %destinationlength, ptr %destinationlength.addr, align 8
  store i64 %value, ptr %value.addr, align 8
  store i32 %increments, ptr %increments.addr, align 4
  store ptr %status, ptr %status.addr, align 8
  %0 = load ptr, ptr %destinationlength.addr, align 8
  %1 = load i32, ptr %0, align 4
  store i32 %1, ptr %newlength, align 4
  %2 = load i32, ptr %offset.addr, align 4
  %add = add i32 %2, 1
  %3 = load i32, ptr %newlength, align 4
  %cmp = icmp eq i32 %add, %3
  br i1 %cmp, label %if.then, label %if.end7

if.then:                                          ; preds = %entry
  %4 = load i32, ptr %increments.addr, align 4
  %5 = load i32, ptr %newlength, align 4
  %add1 = add i32 %5, %4
  store i32 %add1, ptr %newlength, align 4
  %6 = load i32, ptr %newlength, align 4
  %conv = zext i32 %6 to i64
  %mul = mul i64 8, %conv
  %conv2 = trunc i64 %mul to i32
  %7 = load ptr, ptr %status.addr, align 8
  %call = call noundef ptr @_ZL14allocateMemoryjP10UErrorCode(i32 noundef %conv2, ptr noundef %7)
  store ptr %call, ptr %temp, align 8
  %8 = load ptr, ptr %status.addr, align 8
  %9 = load i32, ptr %8, align 4
  %call3 = call noundef signext i8 @_ZL9U_FAILURE10UErrorCode(i32 noundef %9)
  %tobool = icmp ne i8 %call3, 0
  br i1 %tobool, label %if.then4, label %if.end

if.then4:                                         ; preds = %if.then
  store ptr null, ptr %retval, align 8
  br label %return

if.end:                                           ; preds = %if.then
  br label %do.body

do.body:                                          ; preds = %if.end
  %10 = load ptr, ptr %temp, align 8
  %11 = load ptr, ptr %destination.addr, align 8
  %12 = load i32, ptr %offset.addr, align 4
  %conv5 = zext i32 %12 to i64
  %mul6 = mul i64 8, %conv5
  call void @llvm.memcpy.p0.p0.i64(ptr align 8 %10, ptr align 8 %11, i64 %mul6, i1 false)
  br label %do.end

do.end:                                           ; preds = %do.body
  %13 = load i32, ptr %newlength, align 4
  %14 = load ptr, ptr %destinationlength.addr, align 8
  store i32 %13, ptr %14, align 4
  %15 = load ptr, ptr %temp, align 8
  store ptr %15, ptr %destination.addr, align 8
  br label %if.end7

if.end7:                                          ; preds = %do.end, %entry
  %16 = load i64, ptr %value.addr, align 8
  %17 = load ptr, ptr %destination.addr, align 8
  %18 = load i32, ptr %offset.addr, align 4
  %idxprom = zext i32 %18 to i64
  %arrayidx = getelementptr inbounds i64, ptr %17, i64 %idxprom
  store i64 %16, ptr %arrayidx, align 8
  %19 = load ptr, ptr %destination.addr, align 8
  store ptr %19, ptr %retval, align 8
  br label %return

return:                                           ; preds = %if.end7, %if.then4
  %20 = load ptr, ptr %retval, align 8
  ret ptr %20
}

; Function Attrs: mustprogress nounwind uwtable
define internal noundef signext i8 @_ZL9U_SUCCESS10UErrorCode(i32 noundef %code) #1 {
entry:
  %code.addr = alloca i32, align 4
  store i32 %code, ptr %code.addr, align 4
  %0 = load i32, ptr %code.addr, align 4
  %cmp = icmp sle i32 %0, 0
  %conv = zext i1 %cmp to i8
  ret i8 %conv
}

; Function Attrs: mustprogress nounwind uwtable
define internal noundef signext i8 @_ZL9U_FAILURE10UErrorCode(i32 noundef %code) #1 {
entry:
  %code.addr = alloca i32, align 4
  store i32 %code, ptr %code.addr, align 4
  %0 = load i32, ptr %code.addr, align 4
  %cmp = icmp sgt i32 %0, 0
  %conv = zext i1 %cmp to i8
  ret i8 %conv
}

; Function Attrs: mustprogress uwtable
define internal void @_ZL25initializePatternPCETableP13UStringSearchP10UErrorCode(ptr noundef %strsrch, ptr noundef %status) #0 personality ptr @__gxx_personality_v0 {
entry:
  %strsrch.addr = alloca ptr, align 8
  %status.addr = alloca ptr, align 8
  %pattern = alloca ptr, align 8
  %pcetablesize = alloca i32, align 4
  %pcetable = alloca ptr, align 8
  %patternlength = alloca i32, align 4
  %coleiter = alloca ptr, align 8
  %offset = alloca i32, align 4
  %pce = alloca i64, align 8
  %iter = alloca %"class.icu_75::UCollationPCE", align 8
  %exn.slot = alloca ptr, align 8
  %ehselector.slot = alloca i32, align 4
  %temp = alloca ptr, align 8
  %cleanup.dest.slot = alloca i32, align 4
  store ptr %strsrch, ptr %strsrch.addr, align 8
  store ptr %status, ptr %status.addr, align 8
  %0 = load ptr, ptr %strsrch.addr, align 8
  %pattern1 = getelementptr inbounds %struct.UStringSearch, ptr %0, i32 0, i32 1
  store ptr %pattern1, ptr %pattern, align 8
  store i32 256, ptr %pcetablesize, align 4
  %1 = load ptr, ptr %pattern, align 8
  %pcesBuffer = getelementptr inbounds %struct.UPattern, ptr %1, i32 0, i32 7
  %arraydecay = getelementptr inbounds [256 x i64], ptr %pcesBuffer, i64 0, i64 0
  store ptr %arraydecay, ptr %pcetable, align 8
  %2 = load ptr, ptr %pattern, align 8
  %textLength = getelementptr inbounds %struct.UPattern, ptr %2, i32 0, i32 1
  %3 = load i32, ptr %textLength, align 8
  store i32 %3, ptr %patternlength, align 4
  %4 = load ptr, ptr %strsrch.addr, align 8
  %utilIter = getelementptr inbounds %struct.UStringSearch, ptr %4, i32 0, i32 6
  %5 = load ptr, ptr %utilIter, align 8
  store ptr %5, ptr %coleiter, align 8
  %6 = load ptr, ptr %coleiter, align 8
  %cmp = icmp eq ptr %6, null
  br i1 %cmp, label %if.then, label %if.else

if.then:                                          ; preds = %entry
  %7 = load ptr, ptr %strsrch.addr, align 8
  %collator = getelementptr inbounds %struct.UStringSearch, ptr %7, i32 0, i32 2
  %8 = load ptr, ptr %collator, align 8
  %9 = load ptr, ptr %pattern, align 8
  %text = getelementptr inbounds %struct.UPattern, ptr %9, i32 0, i32 0
  %10 = load ptr, ptr %text, align 8
  %11 = load i32, ptr %patternlength, align 4
  %12 = load ptr, ptr %status.addr, align 8
  %call = call ptr @ucol_openElements_75(ptr noundef %8, ptr noundef %10, i32 noundef %11, ptr noundef %12)
  store ptr %call, ptr %coleiter, align 8
  %13 = load ptr, ptr %coleiter, align 8
  %14 = load ptr, ptr %strsrch.addr, align 8
  %utilIter2 = getelementptr inbounds %struct.UStringSearch, ptr %14, i32 0, i32 6
  store ptr %13, ptr %utilIter2, align 8
  br label %if.end

if.else:                                          ; preds = %entry
  %15 = load ptr, ptr %coleiter, align 8
  %16 = load ptr, ptr %pattern, align 8
  %text3 = getelementptr inbounds %struct.UPattern, ptr %16, i32 0, i32 0
  %17 = load ptr, ptr %text3, align 8
  %18 = load ptr, ptr %pattern, align 8
  %textLength4 = getelementptr inbounds %struct.UPattern, ptr %18, i32 0, i32 1
  %19 = load i32, ptr %textLength4, align 8
  %20 = load ptr, ptr %status.addr, align 8
  call void @ucol_setText_75(ptr noundef %15, ptr noundef %17, i32 noundef %19, ptr noundef %20)
  br label %if.end

if.end:                                           ; preds = %if.else, %if.then
  %21 = load ptr, ptr %status.addr, align 8
  %22 = load i32, ptr %21, align 4
  %call5 = call noundef signext i8 @_ZL9U_FAILURE10UErrorCode(i32 noundef %22)
  %tobool = icmp ne i8 %call5, 0
  br i1 %tobool, label %if.then6, label %if.end7

if.then6:                                         ; preds = %if.end
  br label %cleanup.cont

if.end7:                                          ; preds = %if.end
  %23 = load ptr, ptr %pattern, align 8
  %pces = getelementptr inbounds %struct.UPattern, ptr %23, i32 0, i32 6
  %24 = load ptr, ptr %pces, align 8
  %25 = load ptr, ptr %pcetable, align 8
  %cmp8 = icmp ne ptr %24, %25
  br i1 %cmp8, label %land.lhs.true, label %if.end13

land.lhs.true:                                    ; preds = %if.end7
  %26 = load ptr, ptr %pattern, align 8
  %pces9 = getelementptr inbounds %struct.UPattern, ptr %26, i32 0, i32 6
  %27 = load ptr, ptr %pces9, align 8
  %cmp10 = icmp ne ptr %27, null
  br i1 %cmp10, label %if.then11, label %if.end13

if.then11:                                        ; preds = %land.lhs.true
  %28 = load ptr, ptr %pattern, align 8
  %pces12 = getelementptr inbounds %struct.UPattern, ptr %28, i32 0, i32 6
  %29 = load ptr, ptr %pces12, align 8
  call void @uprv_free_75(ptr noundef %29)
  br label %if.end13

if.end13:                                         ; preds = %if.then11, %land.lhs.true, %if.end7
  store i32 0, ptr %offset, align 4
  %30 = load ptr, ptr %coleiter, align 8
  call void @_ZN6icu_7513UCollationPCEC1EP18UCollationElements(ptr noundef nonnull align 8 dereferenceable(292) %iter, ptr noundef %30)
  br label %while.cond

while.cond:                                       ; preds = %if.end34, %if.end13
  %31 = load ptr, ptr %status.addr, align 8
  %call14 = invoke noundef i64 @_ZN6icu_7513UCollationPCE13nextProcessedEPiS1_P10UErrorCode(ptr noundef nonnull align 8 dereferenceable(292) %iter, ptr noundef null, ptr noundef null, ptr noundef %31)
          to label %invoke.cont unwind label %lpad

invoke.cont:                                      ; preds = %while.cond
  store i64 %call14, ptr %pce, align 8
  %cmp15 = icmp ne i64 %call14, 9223372036854775807
  br i1 %cmp15, label %land.rhs, label %land.end

land.rhs:                                         ; preds = %invoke.cont
  %32 = load ptr, ptr %status.addr, align 8
  %33 = load i32, ptr %32, align 4
  %call16 = call noundef signext i8 @_ZL9U_SUCCESS10UErrorCode(i32 noundef %33)
  %tobool17 = icmp ne i8 %call16, 0
  br label %land.end

land.end:                                         ; preds = %land.rhs, %invoke.cont
  %34 = phi i1 [ false, %invoke.cont ], [ %tobool17, %land.rhs ]
  br i1 %34, label %while.body, label %while.end

while.body:                                       ; preds = %land.end
  %35 = load ptr, ptr %pcetable, align 8
  %36 = load i32, ptr %offset, align 4
  %37 = load i64, ptr %pce, align 8
  %38 = load i32, ptr %patternlength, align 4
  %39 = load ptr, ptr %coleiter, align 8
  %call19 = invoke i32 @ucol_getOffset_75(ptr noundef %39)
          to label %invoke.cont18 unwind label %lpad

invoke.cont18:                                    ; preds = %while.body
  %sub = sub i32 %38, %call19
  %add = add i32 %sub, 1
  %40 = load ptr, ptr %status.addr, align 8
  %call21 = invoke noundef ptr @_ZL18addTouint64_tArrayPljPjmjP10UErrorCode(ptr noundef %35, i32 noundef %36, ptr noundef %pcetablesize, i64 noundef %37, i32 noundef %add, ptr noundef %40)
          to label %invoke.cont20 unwind label %lpad

invoke.cont20:                                    ; preds = %invoke.cont18
  store ptr %call21, ptr %temp, align 8
  %41 = load ptr, ptr %status.addr, align 8
  %42 = load i32, ptr %41, align 4
  %call22 = call noundef signext i8 @_ZL9U_FAILURE10UErrorCode(i32 noundef %42)
  %tobool23 = icmp ne i8 %call22, 0
  br i1 %tobool23, label %if.then24, label %if.end25

if.then24:                                        ; preds = %invoke.cont20
  store i32 1, ptr %cleanup.dest.slot, align 4
  br label %cleanup

lpad:                                             ; preds = %if.then32, %invoke.cont18, %while.body, %while.cond
  %43 = landingpad { ptr, i32 }
          cleanup
  %44 = extractvalue { ptr, i32 } %43, 0
  store ptr %44, ptr %exn.slot, align 8
  %45 = extractvalue { ptr, i32 } %43, 1
  store i32 %45, ptr %ehselector.slot, align 4
  call void @_ZN6icu_7513UCollationPCED1Ev(ptr noundef nonnull align 8 dereferenceable(292) %iter) #8
  br label %eh.resume

if.end25:                                         ; preds = %invoke.cont20
  %46 = load i32, ptr %offset, align 4
  %add26 = add i32 %46, 1
  store i32 %add26, ptr %offset, align 4
  %47 = load ptr, ptr %pcetable, align 8
  %48 = load ptr, ptr %temp, align 8
  %cmp27 = icmp ne ptr %47, %48
  br i1 %cmp27, label %land.lhs.true28, label %if.end34

land.lhs.true28:                                  ; preds = %if.end25
  %49 = load ptr, ptr %pcetable, align 8
  %50 = load ptr, ptr %pattern, align 8
  %pcesBuffer29 = getelementptr inbounds %struct.UPattern, ptr %50, i32 0, i32 7
  %arraydecay30 = getelementptr inbounds [256 x i64], ptr %pcesBuffer29, i64 0, i64 0
  %cmp31 = icmp ne ptr %49, %arraydecay30
  br i1 %cmp31, label %if.then32, label %if.end34

if.then32:                                        ; preds = %land.lhs.true28
  %51 = load ptr, ptr %pcetable, align 8
  invoke void @uprv_free_75(ptr noundef %51)
          to label %invoke.cont33 unwind label %lpad

invoke.cont33:                                    ; preds = %if.then32
  br label %if.end34

if.end34:                                         ; preds = %invoke.cont33, %land.lhs.true28, %if.end25
  %52 = load ptr, ptr %temp, align 8
  store ptr %52, ptr %pcetable, align 8
  br label %while.cond, !llvm.loop !10

while.end:                                        ; preds = %land.end
  %53 = load ptr, ptr %pcetable, align 8
  %54 = load i32, ptr %offset, align 4
  %idxprom = zext i32 %54 to i64
  %arrayidx = getelementptr inbounds i64, ptr %53, i64 %idxprom
  store i64 0, ptr %arrayidx, align 8
  %55 = load ptr, ptr %pcetable, align 8
  %56 = load ptr, ptr %pattern, align 8
  %pces35 = getelementptr inbounds %struct.UPattern, ptr %56, i32 0, i32 6
  store ptr %55, ptr %pces35, align 8
  %57 = load i32, ptr %offset, align 4
  %58 = load ptr, ptr %pattern, align 8
  %pcesLength = getelementptr inbounds %struct.UPattern, ptr %58, i32 0, i32 5
  store i32 %57, ptr %pcesLength, align 8
  store i32 0, ptr %cleanup.dest.slot, align 4
  br label %cleanup

cleanup:                                          ; preds = %while.end, %if.then24
  call void @_ZN6icu_7513UCollationPCED1Ev(ptr noundef nonnull align 8 dereferenceable(292) %iter) #8
  %cleanup.dest = load i32, ptr %cleanup.dest.slot, align 4
  switch i32 %cleanup.dest, label %unreachable [
    i32 0, label %cleanup.cont
    i32 1, label %cleanup.cont
  ]

cleanup.cont:                                     ; preds = %cleanup, %cleanup, %if.then6
  ret void

eh.resume:                                        ; preds = %lpad
  %exn = load ptr, ptr %exn.slot, align 8
  %sel = load i32, ptr %ehselector.slot, align 4
  %lpad.val = insertvalue { ptr, i32 } poison, ptr %exn, 0
  %lpad.val36 = insertvalue { ptr, i32 } %lpad.val, i32 %sel, 1
  resume { ptr, i32 } %lpad.val36

unreachable:                                      ; preds = %cleanup
  unreachable
}