; Function Attrs: mustprogress uwtable
define internal fastcc void @_ZL25initializePatternPCETableP13UStringSearchP10UErrorCode(ptr noundef %strsrch, ptr noundef %status) unnamed_addr #0 personality ptr @__gxx_personality_v0 {
entry:
  %iter = alloca %"class.icu_75::UCollationPCE", align 8
  %pattern1 = getelementptr inbounds i8, ptr %strsrch, i64 8
  %pcesBuffer = getelementptr inbounds i8, ptr %strsrch, i64 1072
  %textLength = getelementptr inbounds i8, ptr %strsrch, i64 16
  %0 = load i32, ptr %textLength, align 8
  %utilIter = getelementptr inbounds i8, ptr %strsrch, i64 3160
  %1 = load ptr, ptr %utilIter, align 8
  %cmp = icmp eq ptr %1, null
  br i1 %cmp, label %if.then, label %if.else

if.then:                                          ; preds = %entry
  %collator = getelementptr inbounds i8, ptr %strsrch, i64 3128
  %2 = load ptr, ptr %collator, align 8
  %3 = load ptr, ptr %pattern1, align 8
  %call = tail call ptr @ucol_openElements_75(ptr noundef %2, ptr noundef %3, i32 noundef %0, ptr noundef %status)
  store ptr %call, ptr %utilIter, align 8
  br label %if.end

if.else:                                          ; preds = %entry
  %4 = load ptr, ptr %pattern1, align 8
  tail call void @ucol_setText_75(ptr noundef nonnull %1, ptr noundef %4, i32 noundef %0, ptr noundef %status)
  br label %if.end

if.end:                                           ; preds = %if.else, %if.then
  %coleiter.0 = phi ptr [ %call, %if.then ], [ %1, %if.else ]
  %5 = load i32, ptr %status, align 4
  %cmp.i = icmp slt i32 %5, 1
  br i1 %cmp.i, label %if.end7, label %cleanup.cont

if.end7:                                          ; preds = %if.end
  %pces = getelementptr inbounds i8, ptr %strsrch, i64 1064
  %6 = load ptr, ptr %pces, align 8
  %cmp8.not = icmp eq ptr %6, %pcesBuffer
  %cmp10.not = icmp eq ptr %6, null
  %or.cond = or i1 %cmp8.not, %cmp10.not
  br i1 %or.cond, label %if.end13, label %if.then11

if.then11:                                        ; preds = %if.end7
  tail call void @uprv_free_75(ptr noundef nonnull %6)
  br label %if.end13

if.end13:                                         ; preds = %if.then11, %if.end7
  call void @_ZN6icu_7513UCollationPCEC1EP18UCollationElements(ptr noundef nonnull align 8 dereferenceable(292) %iter, ptr noundef %coleiter.0)
  %sub = add i32 %0, 1
  br label %while.cond

while.cond:                                       ; preds = %while.cond.backedge, %if.end13
  %pcetablesize.0 = phi i32 [ 256, %if.end13 ], [ %pcetablesize.1, %while.cond.backedge ]
  %offset.0 = phi i32 [ 0, %if.end13 ], [ %add.i, %while.cond.backedge ]
  %pcetable.0 = phi ptr [ %pcesBuffer, %if.end13 ], [ %destination.addr.0.i, %while.cond.backedge ]
  %call14 = invoke noundef i64 @_ZN6icu_7513UCollationPCE13nextProcessedEPiS1_P10UErrorCode(ptr noundef nonnull align 8 dereferenceable(292) %iter, ptr noundef null, ptr noundef null, ptr noundef nonnull %status)
          to label %invoke.cont unwind label %lpad

invoke.cont:                                      ; preds = %while.cond
  %cmp15.not = icmp eq i64 %call14, 9223372036854775807
  br i1 %cmp15.not, label %while.end, label %land.rhs

land.rhs:                                         ; preds = %invoke.cont
  %7 = load i32, ptr %status, align 4
  %cmp.i37 = icmp sgt i32 %7, 0
  br i1 %cmp.i37, label %while.end, label %while.body

while.body:                                       ; preds = %land.rhs
  %call19 = invoke i32 @ucol_getOffset_75(ptr noundef %coleiter.0)
          to label %invoke.cont18 unwind label %lpad

invoke.cont18:                                    ; preds = %while.body
  %add.i = add i32 %offset.0, 1
  %cmp.i39 = icmp eq i32 %add.i, %pcetablesize.0
  br i1 %cmp.i39, label %if.then.i, label %entry.if.end7_crit_edge.i

entry.if.end7_crit_edge.i:                        ; preds = %invoke.cont18
  %.pre13.i = zext i32 %offset.0 to i64
  br label %invoke.cont20

if.then.i:                                        ; preds = %invoke.cont18
  %add = add i32 %sub, %pcetablesize.0
  %add1.i = sub i32 %add, %call19
  %mul.i = shl i32 %add1.i, 3
  %conv.i.i = zext i32 %mul.i to i64
  %call.i.i40 = invoke noalias ptr @uprv_malloc_75(i64 noundef %conv.i.i) #16
          to label %call.i.i.noexc unwind label %lpad

call.i.i.noexc:                                   ; preds = %if.then.i
  %cmp.i.i = icmp eq ptr %call.i.i40, null
  br i1 %cmp.i.i, label %_ZL14allocateMemoryjP10UErrorCode.exit.thread.i, label %_ZL14allocateMemoryjP10UErrorCode.exit.i

_ZL14allocateMemoryjP10UErrorCode.exit.thread.i:  ; preds = %call.i.i.noexc
  store i32 7, ptr %status, align 4
  br label %cleanup

_ZL14allocateMemoryjP10UErrorCode.exit.i:         ; preds = %call.i.i.noexc
  %.pre.i = load i32, ptr %status, align 4
  %8 = icmp slt i32 %.pre.i, 1
  br i1 %8, label %do.body.i, label %cleanup

do.body.i:                                        ; preds = %_ZL14allocateMemoryjP10UErrorCode.exit.i
  %conv5.i = zext i32 %offset.0 to i64
  %mul6.i = shl nuw nsw i64 %conv5.i, 3
  call void @llvm.memcpy.p0.p0.i64(ptr nonnull align 8 %call.i.i40, ptr align 8 %pcetable.0, i64 %mul6.i, i1 false)
  br label %invoke.cont20

invoke.cont20:                                    ; preds = %entry.if.end7_crit_edge.i, %do.body.i
  %pcetablesize.1 = phi i32 [ %add1.i, %do.body.i ], [ %pcetablesize.0, %entry.if.end7_crit_edge.i ]
  %idxprom.pre-phi.i = phi i64 [ %conv5.i, %do.body.i ], [ %.pre13.i, %entry.if.end7_crit_edge.i ]
  %destination.addr.0.i = phi ptr [ %call.i.i40, %do.body.i ], [ %pcetable.0, %entry.if.end7_crit_edge.i ]
  %arrayidx.i = getelementptr inbounds i64, ptr %destination.addr.0.i, i64 %idxprom.pre-phi.i
  store i64 %call14, ptr %arrayidx.i, align 8
  %.pre = load i32, ptr %status, align 4
  %cmp.i41 = icmp slt i32 %.pre, 1
  br i1 %cmp.i41, label %if.end25, label %cleanup

lpad:                                             ; preds = %if.then.i, %if.then32, %while.body, %while.cond
  %9 = landingpad { ptr, i32 }
          cleanup
  call void @_ZN6icu_7513UCollationPCED1Ev(ptr noundef nonnull align 8 dereferenceable(292) %iter) #17
  resume { ptr, i32 } %9

if.end25:                                         ; preds = %invoke.cont20
  %cmp27.not = icmp eq ptr %pcetable.0, %destination.addr.0.i
  %cmp31.not = icmp eq ptr %pcetable.0, %pcesBuffer
  %or.cond36 = select i1 %cmp27.not, i1 true, i1 %cmp31.not
  br i1 %or.cond36, label %while.cond.backedge, label %if.then32

if.then32:                                        ; preds = %if.end25
  invoke void @uprv_free_75(ptr noundef %pcetable.0)
          to label %while.cond.backedge unwind label %lpad

while.cond.backedge:                              ; preds = %if.then32, %if.end25
  br label %while.cond, !llvm.loop !12

while.end:                                        ; preds = %invoke.cont, %land.rhs
  %idxprom = zext i32 %offset.0 to i64
  %arrayidx = getelementptr inbounds i64, ptr %pcetable.0, i64 %idxprom
  store i64 0, ptr %arrayidx, align 8
  store ptr %pcetable.0, ptr %pces, align 8
  %pcesLength = getelementptr inbounds i8, ptr %strsrch, i64 1056
  store i32 %offset.0, ptr %pcesLength, align 8
  br label %cleanup

cleanup:                                          ; preds = %_ZL14allocateMemoryjP10UErrorCode.exit.i, %invoke.cont20, %_ZL14allocateMemoryjP10UErrorCode.exit.thread.i, %while.end
  call void @_ZN6icu_7513UCollationPCED1Ev(ptr noundef nonnull align 8 dereferenceable(292) %iter) #17
  br label %cleanup.cont

cleanup.cont:                                     ; preds = %if.end, %cleanup
  ret void
}